(dp0
S'184.105.247.71'
p1
(lp2
Vpynet-rtr2.twb-tech.com
p3
aS'2506518100'
p4
aS'2506475471'
p5
aS'2506354530'
p6
aF1492986145.041087
asS'184.105.247.70'
p7
(lp8
Vpynet-rtr1.twb-tech.com
p9
aS'2636076845'
p10
aS'2632077792'
p11
aS'2635913344'
p12
aF1492986144.36594
as.