(dp0
S'184.105.247.71'
p1
(lp2
Vpynet-rtr2.twb-tech.com
p3
aS'2498394900'
p4
aS'2498375790'
p5
aS'2497714872'
p6
aF1492904909.757319
asS'184.105.247.70'
p7
(lp8
Vpynet-rtr1.twb-tech.com
p9
aS'2627953621'
p10
aS'2627953449'
p11
aS'2627952800'
p12
aF1492904909.08685
as.